target datalayout = "e-m:e-p270:32:32-p271:32:32-p272:64:64-i64:64-i128:128-f80:128-n8:16:32:64-S128"
target triple = "x86_64-pc-linux-gnu"

; Function Attrs: nounwind uwtable
define internal i32 @dofilecont(ptr noundef %0, i32 noundef %1, i64 noundef %2) #0 {
  %4 = alloca ptr, align 8
  %5 = alloca i32, align 4
  %6 = alloca i64, align 8
  store ptr %0, ptr %4, align 8, !tbaa !4
  store i32 %1, ptr %5, align 4, !tbaa !10
  store i64 %2, ptr %6, align 8, !tbaa !16
  %7 = load ptr, ptr %4, align 8, !tbaa !4
  %8 = call i32 @lua_gettop(ptr noundef %7)
  %9 = sub nsw i32 %8, 1
  ret i32 %9
}

; Function Attrs: nounwind uwtable
define internal i32 @luaB_dofile(ptr noundef %0) #0 {
  %2 = alloca i32, align 4
  %3 = alloca ptr, align 8
  %4 = alloca ptr, align 8
  %5 = alloca i32, align 4
  store ptr %0, ptr %3, align 8, !tbaa !4
  call void @llvm.lifetime.start.p0(i64 8, ptr %4) #6
  %6 = load ptr, ptr %3, align 8, !tbaa !4
  %7 = call ptr @luaL_optlstring(ptr noundef %6, i32 noundef 1, ptr noundef null, ptr noundef null)
  store ptr %7, ptr %4, align 8, !tbaa !14
  %8 = load ptr, ptr %3, align 8, !tbaa !4
  call void @lua_settop(ptr noundef %8, i32 noundef 1)
  %9 = load ptr, ptr %3, align 8, !tbaa !4
  %10 = load ptr, ptr %4, align 8, !tbaa !14
  %11 = call i32 @luaL_loadfilex(ptr noundef %9, ptr noundef %10, ptr noundef null)
  %12 = icmp ne i32 %11, 0
  %13 = zext i1 %12 to i32
  %14 = icmp ne i32 %13, 0
  %15 = zext i1 %14 to i32
  %16 = sext i32 %15 to i64
  %17 = call i64 @llvm.expect.i64(i64 %16, i64 0)
  %18 = icmp ne i64 %17, 0
  br i1 %18, label %19, label %22

19:                                               ; preds = %1
  %20 = load ptr, ptr %3, align 8, !tbaa !4
  %21 = call i32 @lua_error(ptr noundef %20)
  store i32 %21, ptr %2, align 4
  store i32 1, ptr %5, align 4
  br label %26

22:                                               ; preds = %1
  %23 = load ptr, ptr %3, align 8, !tbaa !4
  call void @lua_callk(ptr noundef %23, i32 noundef 0, i32 noundef -1, i64 noundef 0, ptr noundef @dofilecont)
  %24 = load ptr, ptr %3, align 8, !tbaa !4
  %25 = call i32 @dofilecont(ptr noundef %24, i32 noundef 0, i64 noundef 0)
  store i32 %25, ptr %2, align 4
  store i32 1, ptr %5, align 4
  br label %26

26:                                               ; preds = %22, %19
  call void @llvm.lifetime.end.p0(i64 8, ptr %4) #6
  %27 = load i32, ptr %2, align 4
  ret i32 %27
}