; Function Attrs: nounwind uwtable
define internal i32 @luaB_dofile(ptr noundef %0) #0 {
  %2 = tail call ptr @luaL_optlstring(ptr noundef %0, i32 noundef 1, ptr noundef null, ptr noundef null) #9
  tail call void @lua_settop(ptr noundef %0, i32 noundef 1) #9
  %3 = tail call i32 @luaL_loadfilex(ptr noundef %0, ptr noundef %2, ptr noundef null) #9
  %.not = icmp eq i32 %3, 0
  br i1 %.not, label %6, label %4, !prof !8

4:                                                ; preds = %1
  %5 = tail call i32 @lua_error(ptr noundef %0) #9
  br label %9

6:                                                ; preds = %1
  tail call void @lua_callk(ptr noundef %0, i32 noundef 0, i32 noundef -1, i64 noundef 0, ptr noundef nonnull @dofilecont) #9
  %7 = tail call i32 @lua_gettop(ptr noundef %0) #9
  %8 = add nsw i32 %7, -1
  br label %9

9:                                                ; preds = %6, %4
  %.0 = phi i32 [ %5, %4 ], [ %8, %6 ]
  ret i32 %.0
}